target datalayout = "e-m:e-p270:32:32-p271:32:32-p272:64:64-i64:64-i128:128-f80:128-n8:16:32:64-S128"
target triple = "x86_64-pc-linux-gnu"

%struct.MRIStepCouplingMem = type { i32, i32, i32, i32, i32, ptr, ptr, ptr, i32, ptr }

; Function Attrs: nounwind uwtable
define ptr @MRIStepCoupling_Copy(ptr noundef %0) #0 {
  %2 = alloca ptr, align 8
  %3 = alloca ptr, align 8
  %4 = alloca i32, align 4
  %5 = alloca i32, align 4
  %6 = alloca i32, align 4
  %7 = alloca i32, align 4
  %8 = alloca i32, align 4
  %9 = alloca i32, align 4
  %10 = alloca ptr, align 8
  %11 = alloca i32, align 4
  store ptr %0, ptr %3, align 8, !tbaa !15
  call void @llvm.lifetime.start.p0(i64 4, ptr %4) #8
  call void @llvm.lifetime.start.p0(i64 4, ptr %5) #8
  call void @llvm.lifetime.start.p0(i64 4, ptr %6) #8
  call void @llvm.lifetime.start.p0(i64 4, ptr %7) #8
  call void @llvm.lifetime.start.p0(i64 4, ptr %8) #8
  call void @llvm.lifetime.start.p0(i64 4, ptr %9) #8
  call void @llvm.lifetime.start.p0(i64 8, ptr %10) #8
  %12 = load ptr, ptr %3, align 8, !tbaa !15
  %13 = icmp ne ptr %12, null
  br i1 %13, label %15, label %14

14:                                               ; preds = %1
  store ptr null, ptr %2, align 8
  store i32 1, ptr %11, align 4
  br label %246

15:                                               ; preds = %1
  %16 = load ptr, ptr %3, align 8, !tbaa !15
  %17 = getelementptr inbounds nuw %struct.MRIStepCouplingMem, ptr %16, i32 0, i32 0
  %18 = load i32, ptr %17, align 8, !tbaa !39
  store i32 %18, ptr %9, align 4, !tbaa !3
  %19 = load ptr, ptr %3, align 8, !tbaa !15
  %20 = getelementptr inbounds nuw %struct.MRIStepCouplingMem, ptr %19, i32 0, i32 5
  %21 = load ptr, ptr %20, align 8, !tbaa !22
  %22 = icmp ne ptr %21, null
  br i1 %22, label %24, label %23

23:                                               ; preds = %15
  store ptr null, ptr %2, align 8
  store i32 1, ptr %11, align 4
  br label %246

24:                                               ; preds = %15
  %25 = load ptr, ptr %3, align 8, !tbaa !15
  %26 = getelementptr inbounds nuw %struct.MRIStepCouplingMem, ptr %25, i32 0, i32 1
  %27 = load i32, ptr %26, align 4, !tbaa !40
  store i32 %27, ptr %7, align 4, !tbaa !3
  %28 = load ptr, ptr %3, align 8, !tbaa !15
  %29 = getelementptr inbounds nuw %struct.MRIStepCouplingMem, ptr %28, i32 0, i32 2
  %30 = load i32, ptr %29, align 8, !tbaa !41
  store i32 %30, ptr %8, align 4, !tbaa !3
  %31 = load i32, ptr %7, align 4, !tbaa !3
  %32 = load i32, ptr %8, align 4, !tbaa !3
  %33 = load i32, ptr %9, align 4, !tbaa !3
  %34 = call ptr @MRIStepCoupling_Alloc(i32 noundef %31, i32 noundef %32, i32 noundef %33)
  store ptr %34, ptr %10, align 8, !tbaa !15
  %35 = load ptr, ptr %10, align 8, !tbaa !15
  %36 = icmp ne ptr %35, null
  br i1 %36, label %38, label %37

37:                                               ; preds = %24
  store ptr null, ptr %2, align 8
  store i32 1, ptr %11, align 4
  br label %246

38:                                               ; preds = %24
  %39 = load ptr, ptr %3, align 8, !tbaa !15
  %40 = getelementptr inbounds nuw %struct.MRIStepCouplingMem, ptr %39, i32 0, i32 3
  %41 = load i32, ptr %40, align 4, !tbaa !17
  %42 = load ptr, ptr %10, align 8, !tbaa !15
  %43 = getelementptr inbounds nuw %struct.MRIStepCouplingMem, ptr %42, i32 0, i32 3
  store i32 %41, ptr %43, align 4, !tbaa !17
  %44 = load ptr, ptr %3, align 8, !tbaa !15
  %45 = getelementptr inbounds nuw %struct.MRIStepCouplingMem, ptr %44, i32 0, i32 4
  %46 = load i32, ptr %45, align 8, !tbaa !21
  %47 = load ptr, ptr %10, align 8, !tbaa !15
  %48 = getelementptr inbounds nuw %struct.MRIStepCouplingMem, ptr %47, i32 0, i32 4
  store i32 %46, ptr %48, align 8, !tbaa !21
  store i32 0, ptr %4, align 4, !tbaa !3
  br label %49

49:                                               ; preds = %67, %38
  %50 = load i32, ptr %4, align 4, !tbaa !3
  %51 = load i32, ptr %8, align 4, !tbaa !3
  %52 = icmp slt i32 %50, %51
  br i1 %52, label %53, label %70

53:                                               ; preds = %49
  %54 = load ptr, ptr %3, align 8, !tbaa !15
  %55 = getelementptr inbounds nuw %struct.MRIStepCouplingMem, ptr %54, i32 0, i32 5
  %56 = load ptr, ptr %55, align 8, !tbaa !22
  %57 = load i32, ptr %4, align 4, !tbaa !3
  %58 = sext i32 %57 to i64
  %59 = getelementptr inbounds double, ptr %56, i64 %58
  %60 = load double, ptr %59, align 8, !tbaa !23
  %61 = load ptr, ptr %10, align 8, !tbaa !15
  %62 = getelementptr inbounds nuw %struct.MRIStepCouplingMem, ptr %61, i32 0, i32 5
  %63 = load ptr, ptr %62, align 8, !tbaa !22
  %64 = load i32, ptr %4, align 4, !tbaa !3
  %65 = sext i32 %64 to i64
  %66 = getelementptr inbounds double, ptr %63, i64 %65
  store double %60, ptr %66, align 8, !tbaa !23
  br label %67

67:                                               ; preds = %53
  %68 = load i32, ptr %4, align 4, !tbaa !3
  %69 = add nsw i32 %68, 1
  store i32 %69, ptr %4, align 4, !tbaa !3
  br label %49

70:                                               ; preds = %49
  %71 = load ptr, ptr %3, align 8, !tbaa !15
  %72 = getelementptr inbounds nuw %struct.MRIStepCouplingMem, ptr %71, i32 0, i32 6
  %73 = load ptr, ptr %72, align 8, !tbaa !25
  %74 = icmp ne ptr %73, null
  br i1 %74, label %75, label %132

75:                                               ; preds = %70
  store i32 0, ptr %6, align 4, !tbaa !3
  br label %76

76:                                               ; preds = %128, %75
  %77 = load i32, ptr %6, align 4, !tbaa !3
  %78 = load i32, ptr %7, align 4, !tbaa !3
  %79 = icmp slt i32 %77, %78
  br i1 %79, label %80, label %131

80:                                               ; preds = %76
  store i32 0, ptr %4, align 4, !tbaa !3
  br label %81

81:                                               ; preds = %124, %80
  %82 = load i32, ptr %4, align 4, !tbaa !3
  %83 = load i32, ptr %8, align 4, !tbaa !3
  %84 = icmp sle i32 %82, %83
  br i1 %84, label %85, label %127

85:                                               ; preds = %81
  store i32 0, ptr %5, align 4, !tbaa !3
  br label %86

86:                                               ; preds = %120, %85
  %87 = load i32, ptr %5, align 4, !tbaa !3
  %88 = load i32, ptr %8, align 4, !tbaa !3
  %89 = icmp slt i32 %87, %88
  br i1 %89, label %90, label %123

90:                                               ; preds = %86
  %91 = load ptr, ptr %3, align 8, !tbaa !15
  %92 = getelementptr inbounds nuw %struct.MRIStepCouplingMem, ptr %91, i32 0, i32 6
  %93 = load ptr, ptr %92, align 8, !tbaa !25
  %94 = load i32, ptr %6, align 4, !tbaa !3
  %95 = sext i32 %94 to i64
  %96 = getelementptr inbounds ptr, ptr %93, i64 %95
  %97 = load ptr, ptr %96, align 8, !tbaa !26
  %98 = load i32, ptr %4, align 4, !tbaa !3
  %99 = sext i32 %98 to i64
  %100 = getelementptr inbounds ptr, ptr %97, i64 %99
  %101 = load ptr, ptr %100, align 8, !tbaa !27
  %102 = load i32, ptr %5, align 4, !tbaa !3
  %103 = sext i32 %102 to i64
  %104 = getelementptr inbounds double, ptr %101, i64 %103
  %105 = load double, ptr %104, align 8, !tbaa !23
  %106 = load ptr, ptr %10, align 8, !tbaa !15
  %107 = getelementptr inbounds nuw %struct.MRIStepCouplingMem, ptr %106, i32 0, i32 6
  %108 = load ptr, ptr %107, align 8, !tbaa !25
  %109 = load i32, ptr %6, align 4, !tbaa !3
  %110 = sext i32 %109 to i64
  %111 = getelementptr inbounds ptr, ptr %108, i64 %110
  %112 = load ptr, ptr %111, align 8, !tbaa !26
  %113 = load i32, ptr %4, align 4, !tbaa !3
  %114 = sext i32 %113 to i64
  %115 = getelementptr inbounds ptr, ptr %112, i64 %114
  %116 = load ptr, ptr %115, align 8, !tbaa !27
  %117 = load i32, ptr %5, align 4, !tbaa !3
  %118 = sext i32 %117 to i64
  %119 = getelementptr inbounds double, ptr %116, i64 %118
  store double %105, ptr %119, align 8, !tbaa !23
  br label %120

120:                                              ; preds = %90
  %121 = load i32, ptr %5, align 4, !tbaa !3
  %122 = add nsw i32 %121, 1
  store i32 %122, ptr %5, align 4, !tbaa !3
  br label %86

123:                                              ; preds = %86
  br label %124

124:                                              ; preds = %123
  %125 = load i32, ptr %4, align 4, !tbaa !3
  %126 = add nsw i32 %125, 1
  store i32 %126, ptr %4, align 4, !tbaa !3
  br label %81

127:                                              ; preds = %81
  br label %128

128:                                              ; preds = %127
  %129 = load i32, ptr %6, align 4, !tbaa !3
  %130 = add nsw i32 %129, 1
  store i32 %130, ptr %6, align 4, !tbaa !3
  br label %76

131:                                              ; preds = %76
  br label %132

132:                                              ; preds = %131, %70
  %133 = load ptr, ptr %3, align 8, !tbaa !15
  %134 = getelementptr inbounds nuw %struct.MRIStepCouplingMem, ptr %133, i32 0, i32 7
  %135 = load ptr, ptr %134, align 8, !tbaa !28
  %136 = icmp ne ptr %135, null
  br i1 %136, label %137, label %194

137:                                              ; preds = %132
  store i32 0, ptr %6, align 4, !tbaa !3
  br label %138

138:                                              ; preds = %190, %137
  %139 = load i32, ptr %6, align 4, !tbaa !3
  %140 = load i32, ptr %7, align 4, !tbaa !3
  %141 = icmp slt i32 %139, %140
  br i1 %141, label %142, label %193

142:                                              ; preds = %138
  store i32 0, ptr %4, align 4, !tbaa !3
  br label %143

143:                                              ; preds = %186, %142
  %144 = load i32, ptr %4, align 4, !tbaa !3
  %145 = load i32, ptr %8, align 4, !tbaa !3
  %146 = icmp sle i32 %144, %145
  br i1 %146, label %147, label %189

147:                                              ; preds = %143
  store i32 0, ptr %5, align 4, !tbaa !3
  br label %148

148:                                              ; preds = %182, %147
  %149 = load i32, ptr %5, align 4, !tbaa !3
  %150 = load i32, ptr %8, align 4, !tbaa !3
  %151 = icmp slt i32 %149, %150
  br i1 %151, label %152, label %185

152:                                              ; preds = %148
  %153 = load ptr, ptr %3, align 8, !tbaa !15
  %154 = getelementptr inbounds nuw %struct.MRIStepCouplingMem, ptr %153, i32 0, i32 7
  %155 = load ptr, ptr %154, align 8, !tbaa !28
  %156 = load i32, ptr %6, align 4, !tbaa !3
  %157 = sext i32 %156 to i64
  %158 = getelementptr inbounds ptr, ptr %155, i64 %157
  %159 = load ptr, ptr %158, align 8, !tbaa !26
  %160 = load i32, ptr %4, align 4, !tbaa !3
  %161 = sext i32 %160 to i64
  %162 = getelementptr inbounds ptr, ptr %159, i64 %161
  %163 = load ptr, ptr %162, align 8, !tbaa !27
  %164 = load i32, ptr %5, align 4, !tbaa !3
  %165 = sext i32 %164 to i64
  %166 = getelementptr inbounds double, ptr %163, i64 %165
  %167 = load double, ptr %166, align 8, !tbaa !23
  %168 = load ptr, ptr %10, align 8, !tbaa !15
  %169 = getelementptr inbounds nuw %struct.MRIStepCouplingMem, ptr %168, i32 0, i32 7
  %170 = load ptr, ptr %169, align 8, !tbaa !28
  %171 = load i32, ptr %6, align 4, !tbaa !3
  %172 = sext i32 %171 to i64
  %173 = getelementptr inbounds ptr, ptr %170, i64 %172
  %174 = load ptr, ptr %173, align 8, !tbaa !26
  %175 = load i32, ptr %4, align 4, !tbaa !3
  %176 = sext i32 %175 to i64
  %177 = getelementptr inbounds ptr, ptr %174, i64 %176
  %178 = load ptr, ptr %177, align 8, !tbaa !27
  %179 = load i32, ptr %5, align 4, !tbaa !3
  %180 = sext i32 %179 to i64
  %181 = getelementptr inbounds double, ptr %178, i64 %180
  store double %167, ptr %181, align 8, !tbaa !23
  br label %182

182:                                              ; preds = %152
  %183 = load i32, ptr %5, align 4, !tbaa !3
  %184 = add nsw i32 %183, 1
  store i32 %184, ptr %5, align 4, !tbaa !3
  br label %148

185:                                              ; preds = %148
  br label %186

186:                                              ; preds = %185
  %187 = load i32, ptr %4, align 4, !tbaa !3
  %188 = add nsw i32 %187, 1
  store i32 %188, ptr %4, align 4, !tbaa !3
  br label %143

189:                                              ; preds = %143
  br label %190

190:                                              ; preds = %189
  %191 = load i32, ptr %6, align 4, !tbaa !3
  %192 = add nsw i32 %191, 1
  store i32 %192, ptr %6, align 4, !tbaa !3
  br label %138

193:                                              ; preds = %138
  br label %194

194:                                              ; preds = %193, %132
  %195 = load ptr, ptr %3, align 8, !tbaa !15
  %196 = getelementptr inbounds nuw %struct.MRIStepCouplingMem, ptr %195, i32 0, i32 9
  %197 = load ptr, ptr %196, align 8, !tbaa !34
  %198 = icmp ne ptr %197, null
  br i1 %198, label %199, label %244

199:                                              ; preds = %194
  %200 = load ptr, ptr %3, align 8, !tbaa !15
  %201 = getelementptr inbounds nuw %struct.MRIStepCouplingMem, ptr %200, i32 0, i32 8
  %202 = load i32, ptr %201, align 8, !tbaa !33
  %203 = load ptr, ptr %10, align 8, !tbaa !15
  %204 = getelementptr inbounds nuw %struct.MRIStepCouplingMem, ptr %203, i32 0, i32 8
  store i32 %202, ptr %204, align 8, !tbaa !33
  store i32 0, ptr %4, align 4, !tbaa !3
  br label %205

205:                                              ; preds = %240, %199
  %206 = load i32, ptr %4, align 4, !tbaa !3
  %207 = load i32, ptr %8, align 4, !tbaa !3
  %208 = icmp slt i32 %206, %207
  br i1 %208, label %209, label %243

209:                                              ; preds = %205
  store i32 0, ptr %5, align 4, !tbaa !3
  br label %210

210:                                              ; preds = %236, %209
  %211 = load i32, ptr %5, align 4, !tbaa !3
  %212 = load i32, ptr %8, align 4, !tbaa !3
  %213 = icmp slt i32 %211, %212
  br i1 %213, label %214, label %239

214:                                              ; preds = %210
  %215 = load ptr, ptr %3, align 8, !tbaa !15
  %216 = getelementptr inbounds nuw %struct.MRIStepCouplingMem, ptr %215, i32 0, i32 9
  %217 = load ptr, ptr %216, align 8, !tbaa !34
  %218 = load i32, ptr %4, align 4, !tbaa !3
  %219 = sext i32 %218 to i64
  %220 = getelementptr inbounds ptr, ptr %217, i64 %219
  %221 = load ptr, ptr %220, align 8, !tbaa !35
  %222 = load i32, ptr %5, align 4, !tbaa !3
  %223 = sext i32 %222 to i64
  %224 = getelementptr inbounds i32, ptr %221, i64 %223
  %225 = load i32, ptr %224, align 4, !tbaa !3
  %226 = load ptr, ptr %10, align 8, !tbaa !15
  %227 = getelementptr inbounds nuw %struct.MRIStepCouplingMem, ptr %226, i32 0, i32 9
  %228 = load ptr, ptr %227, align 8, !tbaa !34
  %229 = load i32, ptr %4, align 4, !tbaa !3
  %230 = sext i32 %229 to i64
  %231 = getelementptr inbounds ptr, ptr %228, i64 %230
  %232 = load ptr, ptr %231, align 8, !tbaa !35
  %233 = load i32, ptr %5, align 4, !tbaa !3
  %234 = sext i32 %233 to i64
  %235 = getelementptr inbounds i32, ptr %232, i64 %234
  store i32 %225, ptr %235, align 4, !tbaa !3
  br label %236

236:                                              ; preds = %214
  %237 = load i32, ptr %5, align 4, !tbaa !3
  %238 = add nsw i32 %237, 1
  store i32 %238, ptr %5, align 4, !tbaa !3
  br label %210

239:                                              ; preds = %210
  br label %240

240:                                              ; preds = %239
  %241 = load i32, ptr %4, align 4, !tbaa !3
  %242 = add nsw i32 %241, 1
  store i32 %242, ptr %4, align 4, !tbaa !3
  br label %205

243:                                              ; preds = %205
  br label %244

244:                                              ; preds = %243, %194
  %245 = load ptr, ptr %10, align 8, !tbaa !15
  store ptr %245, ptr %2, align 8
  store i32 1, ptr %11, align 4
  br label %246

246:                                              ; preds = %244, %37, %23, %14
  call void @llvm.lifetime.end.p0(i64 8, ptr %10) #8
  call void @llvm.lifetime.end.p0(i64 4, ptr %9) #8
  call void @llvm.lifetime.end.p0(i64 4, ptr %8) #8
  call void @llvm.lifetime.end.p0(i64 4, ptr %7) #8
  call void @llvm.lifetime.end.p0(i64 4, ptr %6) #8
  call void @llvm.lifetime.end.p0(i64 4, ptr %5) #8
  call void @llvm.lifetime.end.p0(i64 4, ptr %4) #8
  %247 = load ptr, ptr %2, align 8
  ret ptr %247
}