; Function Attrs: nounwind uwtable
define noundef ptr @MRIStepCoupling_Copy(ptr noundef readonly captures(address_is_null) %0) local_unnamed_addr #0 {
  %.not = icmp eq ptr %0, null
  br i1 %.not, label %.loopexit, label %2

2:                                                ; preds = %1
  %3 = getelementptr inbounds nuw i8, ptr %0, i64 24
  %4 = load ptr, ptr %3, align 8, !tbaa !17
  %.not81 = icmp eq ptr %4, null
  br i1 %.not81, label %.loopexit, label %5

5:                                                ; preds = %2
  %6 = load i32, ptr %0, align 8, !tbaa !35
  %7 = getelementptr inbounds nuw i8, ptr %0, i64 4
  %8 = load i32, ptr %7, align 4, !tbaa !36
  %9 = getelementptr inbounds nuw i8, ptr %0, i64 8
  %10 = load i32, ptr %9, align 8, !tbaa !37
  %11 = tail call ptr @MRIStepCoupling_Alloc(i32 noundef %8, i32 noundef %10, i32 noundef %6)
  %.not82 = icmp eq ptr %11, null
  br i1 %.not82, label %.loopexit, label %12

12:                                               ; preds = %5
  %13 = getelementptr inbounds nuw i8, ptr %0, i64 12
  %14 = load i32, ptr %13, align 4, !tbaa !12
  %15 = getelementptr inbounds nuw i8, ptr %11, i64 12
  store i32 %14, ptr %15, align 4, !tbaa !12
  %16 = getelementptr inbounds nuw i8, ptr %0, i64 16
  %17 = load i32, ptr %16, align 8, !tbaa !16
  %18 = getelementptr inbounds nuw i8, ptr %11, i64 16
  store i32 %17, ptr %18, align 8, !tbaa !16
  %19 = icmp sgt i32 %10, 0
  br i1 %19, label %.lr.ph, label %._crit_edge

.lr.ph:                                           ; preds = %12
  %20 = load ptr, ptr %3, align 8, !tbaa !17
  %21 = getelementptr inbounds nuw i8, ptr %11, i64 24
  %22 = load ptr, ptr %21, align 8, !tbaa !17
  %wide.trip.count = zext nneg i32 %10 to i64
  br label %23

23:                                               ; preds = %.lr.ph, %23
  %indvars.iv = phi i64 [ 0, %.lr.ph ], [ %indvars.iv.next, %23 ]
  %24 = getelementptr inbounds nuw double, ptr %20, i64 %indvars.iv
  %25 = load double, ptr %24, align 8, !tbaa !18
  %26 = getelementptr inbounds nuw double, ptr %22, i64 %indvars.iv
  store double %25, ptr %26, align 8, !tbaa !18
  %indvars.iv.next = add nuw nsw i64 %indvars.iv, 1
  %exitcond.not = icmp eq i64 %indvars.iv.next, %wide.trip.count
  br i1 %exitcond.not, label %._crit_edge, label %23

._crit_edge:                                      ; preds = %23, %12
  %27 = getelementptr inbounds nuw i8, ptr %0, i64 32
  %28 = load ptr, ptr %27, align 8, !tbaa !20
  %.not83 = icmp ne ptr %28, null
  %29 = icmp sgt i32 %8, 0
  %or.cond = and i1 %.not83, %29
  br i1 %or.cond, label %.preheader93.lr.ph, label %.loopexit95

.preheader93.lr.ph:                               ; preds = %._crit_edge
  %.not87100 = icmp slt i32 %10, 0
  %30 = getelementptr inbounds nuw i8, ptr %11, i64 32
  br i1 %.not87100, label %.loopexit95, label %.preheader93.lr.ph.split

.preheader93.lr.ph.split:                         ; preds = %.preheader93.lr.ph
  br i1 %19, label %.preheader93.lr.ph.split.split.us, label %.loopexit91

.preheader93.lr.ph.split.split.us:                ; preds = %.preheader93.lr.ph.split
  %31 = load ptr, ptr %30, align 8, !tbaa !20
  %32 = add nuw i32 %10, 1
  %wide.trip.count138 = zext nneg i32 %8 to i64
  %wide.trip.count133 = zext i32 %32 to i64
  %wide.trip.count128 = zext nneg i32 %10 to i64
  br label %.preheader93.us104

.preheader93.us104:                               ; preds = %._crit_edge102.split.us.us, %.preheader93.lr.ph.split.split.us
  %indvars.iv135 = phi i64 [ %indvars.iv.next136, %._crit_edge102.split.us.us ], [ 0, %.preheader93.lr.ph.split.split.us ]
  %33 = getelementptr inbounds nuw ptr, ptr %28, i64 %indvars.iv135
  %34 = load ptr, ptr %33, align 8, !tbaa !21
  %35 = getelementptr inbounds nuw ptr, ptr %31, i64 %indvars.iv135
  %36 = load ptr, ptr %35, align 8, !tbaa !21
  br label %.preheader92.us.us

.preheader92.us.us:                               ; preds = %._crit_edge99.us.us, %.preheader93.us104
  %indvars.iv130 = phi i64 [ %indvars.iv.next131, %._crit_edge99.us.us ], [ 0, %.preheader93.us104 ]
  %37 = getelementptr inbounds nuw ptr, ptr %34, i64 %indvars.iv130
  %38 = load ptr, ptr %37, align 8, !tbaa !22
  %39 = getelementptr inbounds nuw ptr, ptr %36, i64 %indvars.iv130
  %40 = load ptr, ptr %39, align 8, !tbaa !22
  br label %41

41:                                               ; preds = %41, %.preheader92.us.us
  %indvars.iv125 = phi i64 [ %indvars.iv.next126, %41 ], [ 0, %.preheader92.us.us ]
  %42 = getelementptr inbounds nuw double, ptr %38, i64 %indvars.iv125
  %43 = load double, ptr %42, align 8, !tbaa !18
  %44 = getelementptr inbounds nuw double, ptr %40, i64 %indvars.iv125
  store double %43, ptr %44, align 8, !tbaa !18
  %indvars.iv.next126 = add nuw nsw i64 %indvars.iv125, 1
  %exitcond129.not = icmp eq i64 %indvars.iv.next126, %wide.trip.count128
  br i1 %exitcond129.not, label %._crit_edge99.us.us, label %41

._crit_edge99.us.us:                              ; preds = %41
  %indvars.iv.next131 = add nuw nsw i64 %indvars.iv130, 1
  %exitcond134.not = icmp eq i64 %indvars.iv.next131, %wide.trip.count133
  br i1 %exitcond134.not, label %._crit_edge102.split.us.us, label %.preheader92.us.us

._crit_edge102.split.us.us:                       ; preds = %._crit_edge99.us.us
  %indvars.iv.next136 = add nuw nsw i64 %indvars.iv135, 1
  %exitcond139.not = icmp eq i64 %indvars.iv.next136, %wide.trip.count138
  br i1 %exitcond139.not, label %.loopexit95, label %.preheader93.us104

.loopexit95:                                      ; preds = %._crit_edge102.split.us.us, %.preheader93.lr.ph, %._crit_edge
  %45 = getelementptr inbounds nuw i8, ptr %0, i64 40
  %46 = load ptr, ptr %45, align 8, !tbaa !23
  %.not84 = icmp ne ptr %46, null
  %or.cond119 = and i1 %.not84, %29
  %brmerge.not = and i1 %19, %or.cond119
  br i1 %brmerge.not, label %.preheader89.lr.ph.split.split.us, label %.loopexit91

.preheader89.lr.ph.split.split.us:                ; preds = %.loopexit95
  %47 = getelementptr inbounds nuw i8, ptr %11, i64 40
  %48 = load ptr, ptr %47, align 8, !tbaa !23
  %49 = add nuw i32 %10, 1
  %wide.trip.count153 = zext nneg i32 %8 to i64
  %wide.trip.count148 = zext i32 %49 to i64
  %wide.trip.count143 = zext nneg i32 %10 to i64
  br label %.preheader89.us113

.preheader89.us113:                               ; preds = %._crit_edge111.split.us.us, %.preheader89.lr.ph.split.split.us
  %indvars.iv150 = phi i64 [ %indvars.iv.next151, %._crit_edge111.split.us.us ], [ 0, %.preheader89.lr.ph.split.split.us ]
  %50 = getelementptr inbounds nuw ptr, ptr %46, i64 %indvars.iv150
  %51 = load ptr, ptr %50, align 8, !tbaa !21
  %52 = getelementptr inbounds nuw ptr, ptr %48, i64 %indvars.iv150
  %53 = load ptr, ptr %52, align 8, !tbaa !21
  br label %.preheader88.us.us

.preheader88.us.us:                               ; preds = %._crit_edge108.us.us, %.preheader89.us113
  %indvars.iv145 = phi i64 [ %indvars.iv.next146, %._crit_edge108.us.us ], [ 0, %.preheader89.us113 ]
  %54 = getelementptr inbounds nuw ptr, ptr %51, i64 %indvars.iv145
  %55 = load ptr, ptr %54, align 8, !tbaa !22
  %56 = getelementptr inbounds nuw ptr, ptr %53, i64 %indvars.iv145
  %57 = load ptr, ptr %56, align 8, !tbaa !22
  br label %58

58:                                               ; preds = %58, %.preheader88.us.us
  %indvars.iv140 = phi i64 [ %indvars.iv.next141, %58 ], [ 0, %.preheader88.us.us ]
  %59 = getelementptr inbounds nuw double, ptr %55, i64 %indvars.iv140
  %60 = load double, ptr %59, align 8, !tbaa !18
  %61 = getelementptr inbounds nuw double, ptr %57, i64 %indvars.iv140
  store double %60, ptr %61, align 8, !tbaa !18
  %indvars.iv.next141 = add nuw nsw i64 %indvars.iv140, 1
  %exitcond144.not = icmp eq i64 %indvars.iv.next141, %wide.trip.count143
  br i1 %exitcond144.not, label %._crit_edge108.us.us, label %58

._crit_edge108.us.us:                             ; preds = %58
  %indvars.iv.next146 = add nuw nsw i64 %indvars.iv145, 1
  %exitcond149.not = icmp eq i64 %indvars.iv.next146, %wide.trip.count148
  br i1 %exitcond149.not, label %._crit_edge111.split.us.us, label %.preheader88.us.us

._crit_edge111.split.us.us:                       ; preds = %._crit_edge108.us.us
  %indvars.iv.next151 = add nuw nsw i64 %indvars.iv150, 1
  %exitcond154.not = icmp eq i64 %indvars.iv.next151, %wide.trip.count153
  br i1 %exitcond154.not, label %.loopexit91, label %.preheader89.us113

.loopexit91:                                      ; preds = %._crit_edge111.split.us.us, %.loopexit95, %.preheader93.lr.ph.split
  %62 = getelementptr inbounds nuw i8, ptr %0, i64 56
  %63 = load ptr, ptr %62, align 8, !tbaa !29
  %.not85 = icmp eq ptr %63, null
  br i1 %.not85, label %.loopexit, label %64

64:                                               ; preds = %.loopexit91
  %65 = getelementptr inbounds nuw i8, ptr %0, i64 48
  %66 = load i32, ptr %65, align 8, !tbaa !28
  %67 = getelementptr inbounds nuw i8, ptr %11, i64 48
  store i32 %66, ptr %67, align 8, !tbaa !28
  br i1 %19, label %.preheader.lr.ph, label %.loopexit

.preheader.lr.ph:                                 ; preds = %64
  %68 = getelementptr inbounds nuw i8, ptr %11, i64 56
  %69 = load ptr, ptr %68, align 8, !tbaa !29
  %wide.trip.count163 = zext nneg i32 %10 to i64
  br label %.preheader.us

.preheader.us:                                    ; preds = %._crit_edge117.us, %.preheader.lr.ph
  %indvars.iv160 = phi i64 [ %indvars.iv.next161, %._crit_edge117.us ], [ 0, %.preheader.lr.ph ]
  %70 = getelementptr inbounds nuw ptr, ptr %63, i64 %indvars.iv160
  %71 = load ptr, ptr %70, align 8, !tbaa !30
  %72 = getelementptr inbounds nuw ptr, ptr %69, i64 %indvars.iv160
  %73 = load ptr, ptr %72, align 8, !tbaa !30
  br label %74

74:                                               ; preds = %.preheader.us, %74
  %indvars.iv155 = phi i64 [ 0, %.preheader.us ], [ %indvars.iv.next156, %74 ]
  %75 = getelementptr inbounds nuw i32, ptr %71, i64 %indvars.iv155
  %76 = load i32, ptr %75, align 4, !tbaa !32
  %77 = getelementptr inbounds nuw i32, ptr %73, i64 %indvars.iv155
  store i32 %76, ptr %77, align 4, !tbaa !32
  %indvars.iv.next156 = add nuw nsw i64 %indvars.iv155, 1
  %exitcond159.not = icmp eq i64 %indvars.iv.next156, %wide.trip.count163
  br i1 %exitcond159.not, label %._crit_edge117.us, label %74

._crit_edge117.us:                                ; preds = %74
  %indvars.iv.next161 = add nuw nsw i64 %indvars.iv160, 1
  %exitcond164.not = icmp eq i64 %indvars.iv.next161, %wide.trip.count163
  br i1 %exitcond164.not, label %.loopexit, label %.preheader.us

.loopexit:                                        ; preds = %._crit_edge117.us, %64, %.loopexit91, %5, %2, %1
  %.0 = phi ptr [ null, %1 ], [ null, %2 ], [ null, %5 ], [ %11, %.loopexit91 ], [ %11, %64 ], [ %11, %._crit_edge117.us ]
  ret ptr %.0
}